; Function Attrs: nounwind uwtable
define hidden range(i32 0, 2) i32 @psa_is_key_present_in_storage(i32 noundef %0) local_unnamed_addr #0 {
  %2 = alloca %struct.psa_storage_info_t, align 4
  %3 = zext i32 %0 to i64
  call void @llvm.lifetime.start.p0(i64 8, ptr nonnull %2) #8
  %4 = call i32 @psa_its_get_info(i64 noundef %3, ptr noundef nonnull %2) #8
  %5 = icmp ne i32 %4, -140
  %. = zext i1 %5 to i32
  call void @llvm.lifetime.end.p0(i64 8, ptr nonnull %2) #8
  ret i32 %.
}